target datalayout = "e-m:e-p270:32:32-p271:32:32-p272:64:64-i64:64-i128:128-f80:128-n8:16:32:64-S128"
target triple = "x86_64-pc-linux-gnu"

%struct.nghttp2_session = type { %struct.nghttp2_map, %struct.nghttp2_stream, %struct.nghttp2_outbound_queue, %struct.nghttp2_outbound_queue, %struct.nghttp2_outbound_queue, [8 x %struct.anon], %struct.nghttp2_active_outbound_item, %struct.nghttp2_inbound_frame, %struct.nghttp2_hd_deflater, %struct.nghttp2_hd_inflater, %struct.nghttp2_session_callbacks, %struct.nghttp2_mem, ptr, ptr, ptr, ptr, ptr, ptr, i64, i64, i64, i64, i64, i64, i64, i64, i64, i64, i64, i64, i32, i32, i32, i32, i32, i32, i32, i32, i32, i32, i32, i32, i8, %struct.nghttp2_settings_storage, %struct.nghttp2_settings_storage, i32, i32, i32, i8, i8, i8, i8, i8, i8, i8, [32 x i8] }
%struct.nghttp2_map = type { ptr, ptr, i64, i32, i32 }
%struct.nghttp2_stream = type { %struct.nghttp2_pq_entry, %struct.nghttp2_pq, i64, i64, i64, i64, i64, i64, ptr, ptr, ptr, ptr, ptr, ptr, ptr, ptr, i64, i32, i32, i32, i32, i32, i32, i32, i32, i32, i32, i16, i32, i8, i8, i8, i8, i8, i8 }
%struct.nghttp2_pq_entry = type { i64 }
%struct.nghttp2_pq = type { ptr, ptr, i64, i64, ptr }
%struct.nghttp2_outbound_queue = type { ptr, ptr, i64 }
%struct.anon = type { %struct.nghttp2_pq }
%struct.nghttp2_active_outbound_item = type { ptr, %struct.nghttp2_bufs, i32 }
%struct.nghttp2_bufs = type { ptr, ptr, ptr, i64, i64, i64, i64, i64 }
%struct.nghttp2_inbound_frame = type { %union.nghttp2_frame, %union.nghttp2_ext_frame_payload, ptr, %struct.nghttp2_buf, %struct.nghttp2_buf, ptr, i64, i64, i64, i64, i32, [32 x i8] }
%union.nghttp2_frame = type { %struct.nghttp2_headers }
%struct.nghttp2_headers = type { %struct.nghttp2_frame_hd, i64, %struct.nghttp2_priority_spec, ptr, i64, i32 }
%struct.nghttp2_frame_hd = type { i64, i32, i8, i8, i8 }
%struct.nghttp2_priority_spec = type { i32, i32, i8 }
%union.nghttp2_ext_frame_payload = type { %struct.nghttp2_ext_altsvc }
%struct.nghttp2_ext_altsvc = type { ptr, i64, ptr, i64 }
%struct.nghttp2_buf = type { ptr, ptr, ptr, ptr, ptr }
%struct.nghttp2_hd_deflater = type { %struct.nghttp2_hd_context, %struct.nghttp2_hd_map, i64, i64, i8 }
%struct.nghttp2_hd_context = type { %struct.nghttp2_hd_ringbuf, ptr, i64, i64, i32, i8 }
%struct.nghttp2_hd_ringbuf = type { ptr, i64, i64, i64 }
%struct.nghttp2_hd_map = type { [128 x ptr] }
%struct.nghttp2_hd_inflater = type { %struct.nghttp2_hd_context, %struct.nghttp2_hd_huff_decode_context, %struct.nghttp2_buf, %struct.nghttp2_buf, ptr, ptr, ptr, ptr, i64, i64, i64, i64, i64, i32, i32, i8, i8, i8 }
%struct.nghttp2_hd_huff_decode_context = type { i16 }
%struct.nghttp2_session_callbacks = type { ptr, ptr, ptr, ptr, ptr, ptr, ptr, ptr, ptr, ptr, ptr, ptr, ptr, ptr, ptr, ptr, ptr, ptr, ptr, ptr, ptr, ptr, ptr }
%struct.nghttp2_mem = type { ptr, ptr, ptr, ptr, ptr }
%struct.nghttp2_settings_storage = type { i32, i32, i32, i32, i32, i32, i32, i32 }

; Function Attrs: nounwind uwtable
define internal ptr @session_sched_get_next_outbound_item(ptr noundef %0) #0 {
  %2 = alloca ptr, align 8
  %3 = alloca ptr, align 8
  %4 = alloca i64, align 8
  %5 = alloca ptr, align 8
  %6 = alloca ptr, align 8
  %7 = alloca i32, align 4
  store ptr %0, ptr %3, align 8, !tbaa !8
  call void @llvm.lifetime.start.p0(i64 8, ptr %4) #9
  call void @llvm.lifetime.start.p0(i64 8, ptr %5) #9
  call void @llvm.lifetime.start.p0(i64 8, ptr %6) #9
  store i64 0, ptr %4, align 8, !tbaa !44
  br label %8

8:                                                ; preds = %27, %1
  %9 = load i64, ptr %4, align 8, !tbaa !44
  %10 = icmp ult i64 %9, 8
  br i1 %10, label %11, label %30

11:                                               ; preds = %8
  %12 = load ptr, ptr %3, align 8, !tbaa !8
  %13 = getelementptr inbounds nuw %struct.nghttp2_session, ptr %12, i32 0, i32 5
  %14 = load i64, ptr %4, align 8, !tbaa !44
  %15 = getelementptr inbounds nuw [8 x %struct.anon], ptr %13, i64 0, i64 %14
  %16 = getelementptr inbounds nuw %struct.anon, ptr %15, i32 0, i32 0
  %17 = call ptr @nghttp2_pq_top(ptr noundef %16)
  store ptr %17, ptr %5, align 8, !tbaa !53
  %18 = load ptr, ptr %5, align 8, !tbaa !53
  %19 = icmp ne ptr %18, null
  br i1 %19, label %21, label %20

20:                                               ; preds = %11
  br label %27

21:                                               ; preds = %11
  %22 = load ptr, ptr %5, align 8, !tbaa !53
  %23 = getelementptr inbounds i8, ptr %22, i64 0
  store ptr %23, ptr %6, align 8, !tbaa !46
  %24 = load ptr, ptr %6, align 8, !tbaa !46
  %25 = getelementptr inbounds nuw %struct.nghttp2_stream, ptr %24, i32 0, i32 15
  %26 = load ptr, ptr %25, align 8, !tbaa !105
  store ptr %26, ptr %2, align 8
  store i32 1, ptr %7, align 4
  br label %31

27:                                               ; preds = %20
  %28 = load i64, ptr %4, align 8, !tbaa !44
  %29 = add i64 %28, 1
  store i64 %29, ptr %4, align 8, !tbaa !44
  br label %8, !llvm.loop !166

30:                                               ; preds = %8
  store ptr null, ptr %2, align 8
  store i32 1, ptr %7, align 4
  br label %31

31:                                               ; preds = %30, %21
  call void @llvm.lifetime.end.p0(i64 8, ptr %6) #9
  call void @llvm.lifetime.end.p0(i64 8, ptr %5) #9
  call void @llvm.lifetime.end.p0(i64 8, ptr %4) #9
  %32 = load ptr, ptr %2, align 8
  ret ptr %32
}

; Function Attrs: nounwind uwtable
define internal i32 @session_is_outgoing_concurrent_streams_max(ptr noundef %0) #0 {
  %2 = alloca ptr, align 8
  store ptr %0, ptr %2, align 8, !tbaa !8
  %3 = load ptr, ptr %2, align 8, !tbaa !8
  %4 = getelementptr inbounds nuw %struct.nghttp2_session, ptr %3, i32 0, i32 43
  %5 = getelementptr inbounds nuw %struct.nghttp2_settings_storage, ptr %4, i32 0, i32 2
  %6 = load i32, ptr %5, align 4, !tbaa !69
  %7 = zext i32 %6 to i64
  %8 = load ptr, ptr %2, align 8, !tbaa !8
  %9 = getelementptr inbounds nuw %struct.nghttp2_session, ptr %8, i32 0, i32 19
  %10 = load i64, ptr %9, align 8, !tbaa !136
  %11 = icmp ule i64 %7, %10
  %12 = zext i1 %11 to i32
  ret i32 %12
}

; Function Attrs: nounwind uwtable
define dso_local ptr @nghttp2_session_get_next_ob_item(ptr noundef %0) #0 {
  %2 = alloca ptr, align 8
  %3 = alloca ptr, align 8
  %4 = alloca ptr, align 8
  %5 = alloca i32, align 4
  store ptr %0, ptr %3, align 8, !tbaa !8
  call void @llvm.lifetime.start.p0(i64 8, ptr %4) #9
  %6 = load ptr, ptr %3, align 8, !tbaa !8
  %7 = getelementptr inbounds nuw %struct.nghttp2_session, ptr %6, i32 0, i32 2
  %8 = getelementptr inbounds nuw %struct.nghttp2_outbound_queue, ptr %7, i32 0, i32 0
  %9 = load ptr, ptr %8, align 8, !tbaa !164
  %10 = icmp ne ptr %9, null
  br i1 %10, label %11, label %16

11:                                               ; preds = %1
  %12 = load ptr, ptr %3, align 8, !tbaa !8
  %13 = getelementptr inbounds nuw %struct.nghttp2_session, ptr %12, i32 0, i32 2
  %14 = getelementptr inbounds nuw %struct.nghttp2_outbound_queue, ptr %13, i32 0, i32 0
  %15 = load ptr, ptr %14, align 8, !tbaa !164
  store ptr %15, ptr %2, align 8
  store i32 1, ptr %5, align 4
  br label %60

16:                                               ; preds = %1
  %17 = load ptr, ptr %3, align 8, !tbaa !8
  %18 = getelementptr inbounds nuw %struct.nghttp2_session, ptr %17, i32 0, i32 3
  %19 = getelementptr inbounds nuw %struct.nghttp2_outbound_queue, ptr %18, i32 0, i32 0
  %20 = load ptr, ptr %19, align 8, !tbaa !165
  %21 = icmp ne ptr %20, null
  br i1 %21, label %22, label %27

22:                                               ; preds = %16
  %23 = load ptr, ptr %3, align 8, !tbaa !8
  %24 = getelementptr inbounds nuw %struct.nghttp2_session, ptr %23, i32 0, i32 3
  %25 = getelementptr inbounds nuw %struct.nghttp2_outbound_queue, ptr %24, i32 0, i32 0
  %26 = load ptr, ptr %25, align 8, !tbaa !165
  store ptr %26, ptr %2, align 8
  store i32 1, ptr %5, align 4
  br label %60

27:                                               ; preds = %16
  %28 = load ptr, ptr %3, align 8, !tbaa !8
  %29 = call i32 @session_is_outgoing_concurrent_streams_max(ptr noundef %28)
  %30 = icmp ne i32 %29, 0
  br i1 %30, label %43, label %31

31:                                               ; preds = %27
  %32 = load ptr, ptr %3, align 8, !tbaa !8
  %33 = getelementptr inbounds nuw %struct.nghttp2_session, ptr %32, i32 0, i32 4
  %34 = getelementptr inbounds nuw %struct.nghttp2_outbound_queue, ptr %33, i32 0, i32 0
  %35 = load ptr, ptr %34, align 8, !tbaa !145
  %36 = icmp ne ptr %35, null
  br i1 %36, label %37, label %42

37:                                               ; preds = %31
  %38 = load ptr, ptr %3, align 8, !tbaa !8
  %39 = getelementptr inbounds nuw %struct.nghttp2_session, ptr %38, i32 0, i32 4
  %40 = getelementptr inbounds nuw %struct.nghttp2_outbound_queue, ptr %39, i32 0, i32 0
  %41 = load ptr, ptr %40, align 8, !tbaa !145
  store ptr %41, ptr %2, align 8
  store i32 1, ptr %5, align 4
  br label %60

42:                                               ; preds = %31
  br label %43

43:                                               ; preds = %42, %27
  %44 = load ptr, ptr %3, align 8, !tbaa !8
  %45 = getelementptr inbounds nuw %struct.nghttp2_session, ptr %44, i32 0, i32 37
  %46 = load i32, ptr %45, align 4, !tbaa !58
  %47 = icmp sgt i32 %46, 0
  br i1 %47, label %48, label %59

48:                                               ; preds = %43
  %49 = load ptr, ptr %3, align 8, !tbaa !8
  %50 = getelementptr inbounds nuw %struct.nghttp2_session, ptr %49, i32 0, i32 1
  %51 = call ptr @nghttp2_stream_next_outbound_item(ptr noundef %50)
  store ptr %51, ptr %4, align 8, !tbaa !106
  %52 = load ptr, ptr %4, align 8, !tbaa !106
  %53 = icmp ne ptr %52, null
  br i1 %53, label %54, label %56

54:                                               ; preds = %48
  %55 = load ptr, ptr %4, align 8, !tbaa !106
  store ptr %55, ptr %2, align 8
  store i32 1, ptr %5, align 4
  br label %60

56:                                               ; preds = %48
  %57 = load ptr, ptr %3, align 8, !tbaa !8
  %58 = call ptr @session_sched_get_next_outbound_item(ptr noundef %57)
  store ptr %58, ptr %2, align 8
  store i32 1, ptr %5, align 4
  br label %60

59:                                               ; preds = %43
  store ptr null, ptr %2, align 8
  store i32 1, ptr %5, align 4
  br label %60

60:                                               ; preds = %59, %56, %54, %37, %22, %11
  call void @llvm.lifetime.end.p0(i64 8, ptr %4) #9
  %61 = load ptr, ptr %2, align 8
  ret ptr %61
}