; Function Attrs: nounwind uwtable
define dso_local ptr @nghttp2_session_get_next_ob_item(ptr noundef %0) local_unnamed_addr #1 {
  %2 = getelementptr inbounds nuw i8, ptr %0, i64 256
  %3 = load ptr, ptr %2, align 8, !tbaa !161
  %.not = icmp eq ptr %3, null
  br i1 %.not, label %4, label %session_sched_get_next_outbound_item.exit

4:                                                ; preds = %1
  %5 = getelementptr inbounds nuw i8, ptr %0, i64 280
  %6 = load ptr, ptr %5, align 8, !tbaa !162
  %.not17 = icmp eq ptr %6, null
  br i1 %.not17, label %7, label %session_sched_get_next_outbound_item.exit

7:                                                ; preds = %4
  %8 = getelementptr i8, ptr %0, i64 2624
  %.val = load i64, ptr %8, align 8, !tbaa !136
  %9 = getelementptr i8, ptr %0, i64 2772
  %.val21 = load i32, ptr %9, align 4, !tbaa !66
  %10 = zext i32 %.val21 to i64
  %.not22 = icmp ult i64 %.val, %10
  br i1 %.not22, label %11, label %14

11:                                               ; preds = %7
  %12 = getelementptr inbounds nuw i8, ptr %0, i64 304
  %13 = load ptr, ptr %12, align 8, !tbaa !148
  %.not19 = icmp eq ptr %13, null
  br i1 %.not19, label %14, label %session_sched_get_next_outbound_item.exit

14:                                               ; preds = %11, %7
  %15 = getelementptr inbounds nuw i8, ptr %0, i64 2740
  %16 = load i32, ptr %15, align 4, !tbaa !48
  %17 = icmp sgt i32 %16, 0
  br i1 %17, label %18, label %session_sched_get_next_outbound_item.exit

18:                                               ; preds = %14
  %19 = getelementptr inbounds nuw i8, ptr %0, i64 32
  %20 = tail call ptr @nghttp2_stream_next_outbound_item(ptr noundef nonnull %19) #20
  %.not20 = icmp eq ptr %20, null
  br i1 %.not20, label %21, label %session_sched_get_next_outbound_item.exit

21:                                               ; preds = %18
  %22 = getelementptr inbounds nuw i8, ptr %0, i64 328
  br label %25

23:                                               ; preds = %25
  %24 = add nuw nsw i64 %.079.i, 1
  %exitcond.not.i = icmp eq i64 %24, 8
  br i1 %exitcond.not.i, label %session_sched_get_next_outbound_item.exit, label %25, !llvm.loop !164

25:                                               ; preds = %23, %21
  %.079.i = phi i64 [ 0, %21 ], [ %24, %23 ]
  %26 = getelementptr inbounds nuw [8 x %struct.anon], ptr %22, i64 0, i64 %.079.i
  %27 = tail call ptr @nghttp2_pq_top(ptr noundef nonnull %26) #20
  %.not.i = icmp eq ptr %27, null
  br i1 %.not.i, label %23, label %28

28:                                               ; preds = %25
  %29 = getelementptr inbounds nuw i8, ptr %27, i64 152
  %30 = load ptr, ptr %29, align 8, !tbaa !108
  br label %session_sched_get_next_outbound_item.exit

session_sched_get_next_outbound_item.exit:        ; preds = %23, %28, %14, %18, %11, %4, %1
  %.0 = phi ptr [ %3, %1 ], [ %6, %4 ], [ %13, %11 ], [ %20, %18 ], [ null, %14 ], [ %30, %28 ], [ null, %23 ]
  ret ptr %.0
}